target datalayout = "e-m:e-p270:32:32-p271:32:32-p272:64:64-i64:64-i128:128-f80:128-n8:16:32:64-S128"
target triple = "x86_64-pc-linux-gnu"

%struct.BrotliDecoderStateStruct = type { i32, i32, %struct.BrotliBitReader, ptr, ptr, ptr, %union.anon, i64, i32, i32, i32, i32, i32, i32, [4 x i32], i32, i32, ptr, ptr, ptr, ptr, ptr, ptr, %struct.HuffmanTreeGroup, %struct.HuffmanTreeGroup, %struct.HuffmanTreeGroup, ptr, ptr, i32, i32, [3 x i64], i64, [3 x i64], [6 x i64], i64, i64, i64, ptr, ptr, i64, i64, i64, [65 x i32], i32, i32, i8, ptr, ptr, ptr, i64, i32, i32, i32, i32, i32, i32, i64, ptr, ptr, ptr, ptr, [8 x i32], %union.anon.0 }
%struct.BrotliBitReader = type { i64, i64, ptr, ptr, ptr }
%union.anon = type { i64 }
%struct.HuffmanTreeGroup = type { ptr, ptr, i16, i16, i16 }
%union.anon.0 = type { %struct.BrotliMetablockBodyArena }
%struct.BrotliMetablockBodyArena = type { [544 x i8], [544 x i64] }

; Function Attrs: nounwind uwtable
define internal i64 @UnwrittenBytes(ptr noundef %0, i32 noundef %1) #0 {
  %3 = alloca ptr, align 8
  %4 = alloca i32, align 4
  %5 = alloca i64, align 8
  %6 = alloca i64, align 8
  store ptr %0, ptr %3, align 8, !tbaa !3
  store i32 %1, ptr %4, align 4, !tbaa !8
  call void @llvm.lifetime.start.p0(i64 8, ptr %5) #11
  %7 = load i32, ptr %4, align 4, !tbaa !8
  %8 = icmp ne i32 %7, 0
  br i1 %8, label %9, label %22

9:                                                ; preds = %2
  %10 = load ptr, ptr %3, align 8, !tbaa !3
  %11 = getelementptr inbounds nuw %struct.BrotliDecoderStateStruct, ptr %10, i32 0, i32 8
  %12 = load i32, ptr %11, align 8, !tbaa !81
  %13 = load ptr, ptr %3, align 8, !tbaa !3
  %14 = getelementptr inbounds nuw %struct.BrotliDecoderStateStruct, ptr %13, i32 0, i32 11
  %15 = load i32, ptr %14, align 4, !tbaa !79
  %16 = icmp sgt i32 %12, %15
  br i1 %16, label %17, label %22

17:                                               ; preds = %9
  %18 = load ptr, ptr %3, align 8, !tbaa !3
  %19 = getelementptr inbounds nuw %struct.BrotliDecoderStateStruct, ptr %18, i32 0, i32 11
  %20 = load i32, ptr %19, align 4, !tbaa !79
  %21 = sext i32 %20 to i64
  br label %27

22:                                               ; preds = %9, %2
  %23 = load ptr, ptr %3, align 8, !tbaa !3
  %24 = getelementptr inbounds nuw %struct.BrotliDecoderStateStruct, ptr %23, i32 0, i32 8
  %25 = load i32, ptr %24, align 8, !tbaa !81
  %26 = sext i32 %25 to i64
  br label %27

27:                                               ; preds = %22, %17
  %28 = phi i64 [ %21, %17 ], [ %26, %22 ]
  store i64 %28, ptr %5, align 8, !tbaa !22
  call void @llvm.lifetime.start.p0(i64 8, ptr %6) #11
  %29 = load ptr, ptr %3, align 8, !tbaa !3
  %30 = getelementptr inbounds nuw %struct.BrotliDecoderStateStruct, ptr %29, i32 0, i32 39
  %31 = load i64, ptr %30, align 8, !tbaa !87
  %32 = load ptr, ptr %3, align 8, !tbaa !3
  %33 = getelementptr inbounds nuw %struct.BrotliDecoderStateStruct, ptr %32, i32 0, i32 11
  %34 = load i32, ptr %33, align 4, !tbaa !79
  %35 = sext i32 %34 to i64
  %36 = mul i64 %31, %35
  %37 = load i64, ptr %5, align 8, !tbaa !22
  %38 = add i64 %36, %37
  store i64 %38, ptr %6, align 8, !tbaa !22
  %39 = load i64, ptr %6, align 8, !tbaa !22
  %40 = load ptr, ptr %3, align 8, !tbaa !3
  %41 = getelementptr inbounds nuw %struct.BrotliDecoderStateStruct, ptr %40, i32 0, i32 40
  %42 = load i64, ptr %41, align 8, !tbaa !45
  %43 = sub i64 %39, %42
  call void @llvm.lifetime.end.p0(i64 8, ptr %6) #11
  call void @llvm.lifetime.end.p0(i64 8, ptr %5) #11
  ret i64 %43
}

; Function Attrs: noinline nounwind uwtable
define internal i32 @WriteRingBuffer(ptr noundef %0, ptr noundef %1, ptr noundef %2, ptr noundef %3, i32 noundef %4) #5 {
  %6 = alloca i32, align 4
  %7 = alloca ptr, align 8
  %8 = alloca ptr, align 8
  %9 = alloca ptr, align 8
  %10 = alloca ptr, align 8
  %11 = alloca i32, align 4
  %12 = alloca ptr, align 8
  %13 = alloca i64, align 8
  %14 = alloca i64, align 8
  %15 = alloca i32, align 4
  store ptr %0, ptr %7, align 8, !tbaa !3
  store ptr %1, ptr %8, align 8, !tbaa !41
  store ptr %2, ptr %9, align 8, !tbaa !43
  store ptr %3, ptr %10, align 8, !tbaa !41
  store i32 %4, ptr %11, align 4, !tbaa !8
  call void @llvm.lifetime.start.p0(i64 8, ptr %12) #11
  %16 = load ptr, ptr %7, align 8, !tbaa !3
  %17 = getelementptr inbounds nuw %struct.BrotliDecoderStateStruct, ptr %16, i32 0, i32 17
  %18 = load ptr, ptr %17, align 8, !tbaa !48
  %19 = load ptr, ptr %7, align 8, !tbaa !3
  %20 = getelementptr inbounds nuw %struct.BrotliDecoderStateStruct, ptr %19, i32 0, i32 40
  %21 = load i64, ptr %20, align 8, !tbaa !45
  %22 = load ptr, ptr %7, align 8, !tbaa !3
  %23 = getelementptr inbounds nuw %struct.BrotliDecoderStateStruct, ptr %22, i32 0, i32 12
  %24 = load i32, ptr %23, align 8, !tbaa !86
  %25 = sext i32 %24 to i64
  %26 = and i64 %21, %25
  %27 = getelementptr inbounds nuw i8, ptr %18, i64 %26
  store ptr %27, ptr %12, align 8, !tbaa !23
  call void @llvm.lifetime.start.p0(i64 8, ptr %13) #11
  %28 = load ptr, ptr %7, align 8, !tbaa !3
  %29 = call i64 @UnwrittenBytes(ptr noundef %28, i32 noundef 1)
  store i64 %29, ptr %13, align 8, !tbaa !22
  call void @llvm.lifetime.start.p0(i64 8, ptr %14) #11
  %30 = load ptr, ptr %8, align 8, !tbaa !41
  %31 = load i64, ptr %30, align 8, !tbaa !22
  store i64 %31, ptr %14, align 8, !tbaa !22
  %32 = load i64, ptr %14, align 8, !tbaa !22
  %33 = load i64, ptr %13, align 8, !tbaa !22
  %34 = icmp ugt i64 %32, %33
  br i1 %34, label %35, label %37

35:                                               ; preds = %5
  %36 = load i64, ptr %13, align 8, !tbaa !22
  store i64 %36, ptr %14, align 8, !tbaa !22
  br label %37

37:                                               ; preds = %35, %5
  %38 = load ptr, ptr %7, align 8, !tbaa !3
  %39 = getelementptr inbounds nuw %struct.BrotliDecoderStateStruct, ptr %38, i32 0, i32 16
  %40 = load i32, ptr %39, align 4, !tbaa !58
  %41 = icmp slt i32 %40, 0
  br i1 %41, label %42, label %43

42:                                               ; preds = %37
  store i32 -9, ptr %6, align 4
  store i32 1, ptr %15, align 4
  br label %148

43:                                               ; preds = %37
  %44 = load ptr, ptr %9, align 8, !tbaa !43
  %45 = icmp ne ptr %44, null
  br i1 %45, label %46, label %53

46:                                               ; preds = %43
  %47 = load ptr, ptr %9, align 8, !tbaa !43
  %48 = load ptr, ptr %47, align 8, !tbaa !23
  %49 = icmp ne ptr %48, null
  br i1 %49, label %53, label %50

50:                                               ; preds = %46
  %51 = load ptr, ptr %12, align 8, !tbaa !23
  %52 = load ptr, ptr %9, align 8, !tbaa !43
  store ptr %51, ptr %52, align 8, !tbaa !23
  br label %66

53:                                               ; preds = %46, %43
  %54 = load ptr, ptr %9, align 8, !tbaa !43
  %55 = icmp ne ptr %54, null
  br i1 %55, label %56, label %65

56:                                               ; preds = %53
  %57 = load ptr, ptr %9, align 8, !tbaa !43
  %58 = load ptr, ptr %57, align 8, !tbaa !23
  %59 = load ptr, ptr %12, align 8, !tbaa !23
  %60 = load i64, ptr %14, align 8, !tbaa !22
  call void @llvm.memcpy.p0.p0.i64(ptr align 1 %58, ptr align 1 %59, i64 %60, i1 false)
  %61 = load i64, ptr %14, align 8, !tbaa !22
  %62 = load ptr, ptr %9, align 8, !tbaa !43
  %63 = load ptr, ptr %62, align 8, !tbaa !23
  %64 = getelementptr inbounds nuw i8, ptr %63, i64 %61
  store ptr %64, ptr %62, align 8, !tbaa !23
  br label %65

65:                                               ; preds = %56, %53
  br label %66

66:                                               ; preds = %65, %50
  %67 = load i64, ptr %14, align 8, !tbaa !22
  %68 = load ptr, ptr %8, align 8, !tbaa !41
  %69 = load i64, ptr %68, align 8, !tbaa !22
  %70 = sub i64 %69, %67
  store i64 %70, ptr %68, align 8, !tbaa !22
  %71 = load i64, ptr %14, align 8, !tbaa !22
  %72 = load ptr, ptr %7, align 8, !tbaa !3
  %73 = getelementptr inbounds nuw %struct.BrotliDecoderStateStruct, ptr %72, i32 0, i32 40
  %74 = load i64, ptr %73, align 8, !tbaa !45
  %75 = add i64 %74, %71
  store i64 %75, ptr %73, align 8, !tbaa !45
  %76 = load ptr, ptr %10, align 8, !tbaa !41
  %77 = icmp ne ptr %76, null
  br i1 %77, label %78, label %83

78:                                               ; preds = %66
  %79 = load ptr, ptr %7, align 8, !tbaa !3
  %80 = getelementptr inbounds nuw %struct.BrotliDecoderStateStruct, ptr %79, i32 0, i32 40
  %81 = load i64, ptr %80, align 8, !tbaa !45
  %82 = load ptr, ptr %10, align 8, !tbaa !41
  store i64 %81, ptr %82, align 8, !tbaa !22
  br label %83

83:                                               ; preds = %78, %66
  %84 = load i64, ptr %14, align 8, !tbaa !22
  %85 = load i64, ptr %13, align 8, !tbaa !22
  %86 = icmp ult i64 %84, %85
  br i1 %86, label %87, label %103

87:                                               ; preds = %83
  %88 = load ptr, ptr %7, align 8, !tbaa !3
  %89 = getelementptr inbounds nuw %struct.BrotliDecoderStateStruct, ptr %88, i32 0, i32 11
  %90 = load i32, ptr %89, align 4, !tbaa !79
  %91 = load ptr, ptr %7, align 8, !tbaa !3
  %92 = getelementptr inbounds nuw %struct.BrotliDecoderStateStruct, ptr %91, i32 0, i32 55
  %93 = load i32, ptr %92, align 4
  %94 = lshr i32 %93, 6
  %95 = and i32 %94, 63
  %96 = shl i32 1, %95
  %97 = icmp eq i32 %90, %96
  br i1 %97, label %101, label %98

98:                                               ; preds = %87
  %99 = load i32, ptr %11, align 4, !tbaa !8
  %100 = icmp ne i32 %99, 0
  br i1 %100, label %101, label %102

101:                                              ; preds = %98, %87
  store i32 3, ptr %6, align 4
  store i32 1, ptr %15, align 4
  br label %148

102:                                              ; preds = %98
  store i32 1, ptr %6, align 4
  store i32 1, ptr %15, align 4
  br label %148

103:                                              ; preds = %83
  %104 = load ptr, ptr %7, align 8, !tbaa !3
  %105 = getelementptr inbounds nuw %struct.BrotliDecoderStateStruct, ptr %104, i32 0, i32 11
  %106 = load i32, ptr %105, align 4, !tbaa !79
  %107 = load ptr, ptr %7, align 8, !tbaa !3
  %108 = getelementptr inbounds nuw %struct.BrotliDecoderStateStruct, ptr %107, i32 0, i32 55
  %109 = load i32, ptr %108, align 4
  %110 = lshr i32 %109, 6
  %111 = and i32 %110, 63
  %112 = shl i32 1, %111
  %113 = icmp eq i32 %106, %112
  br i1 %113, label %114, label %147

114:                                              ; preds = %103
  %115 = load ptr, ptr %7, align 8, !tbaa !3
  %116 = getelementptr inbounds nuw %struct.BrotliDecoderStateStruct, ptr %115, i32 0, i32 8
  %117 = load i32, ptr %116, align 8, !tbaa !81
  %118 = load ptr, ptr %7, align 8, !tbaa !3
  %119 = getelementptr inbounds nuw %struct.BrotliDecoderStateStruct, ptr %118, i32 0, i32 11
  %120 = load i32, ptr %119, align 4, !tbaa !79
  %121 = icmp sge i32 %117, %120
  br i1 %121, label %122, label %147

122:                                              ; preds = %114
  %123 = load ptr, ptr %7, align 8, !tbaa !3
  %124 = getelementptr inbounds nuw %struct.BrotliDecoderStateStruct, ptr %123, i32 0, i32 11
  %125 = load i32, ptr %124, align 4, !tbaa !79
  %126 = load ptr, ptr %7, align 8, !tbaa !3
  %127 = getelementptr inbounds nuw %struct.BrotliDecoderStateStruct, ptr %126, i32 0, i32 8
  %128 = load i32, ptr %127, align 8, !tbaa !81
  %129 = sub nsw i32 %128, %125
  store i32 %129, ptr %127, align 8, !tbaa !81
  %130 = load ptr, ptr %7, align 8, !tbaa !3
  %131 = getelementptr inbounds nuw %struct.BrotliDecoderStateStruct, ptr %130, i32 0, i32 39
  %132 = load i64, ptr %131, align 8, !tbaa !87
  %133 = add i64 %132, 1
  store i64 %133, ptr %131, align 8, !tbaa !87
  %134 = load ptr, ptr %7, align 8, !tbaa !3
  %135 = getelementptr inbounds nuw %struct.BrotliDecoderStateStruct, ptr %134, i32 0, i32 8
  %136 = load i32, ptr %135, align 8, !tbaa !81
  %137 = sext i32 %136 to i64
  %138 = icmp ne i64 %137, 0
  %139 = select i1 %138, i32 1, i32 0
  %140 = load ptr, ptr %7, align 8, !tbaa !3
  %141 = getelementptr inbounds nuw %struct.BrotliDecoderStateStruct, ptr %140, i32 0, i32 55
  %142 = load i32, ptr %141, align 4
  %143 = and i32 %139, 1
  %144 = shl i32 %143, 3
  %145 = and i32 %142, -9
  %146 = or i32 %145, %144
  store i32 %146, ptr %141, align 4
  br label %147

147:                                              ; preds = %122, %114, %103
  store i32 1, ptr %6, align 4
  store i32 1, ptr %15, align 4
  br label %148

148:                                              ; preds = %147, %102, %101, %42
  call void @llvm.lifetime.end.p0(i64 8, ptr %14) #11
  call void @llvm.lifetime.end.p0(i64 8, ptr %13) #11
  call void @llvm.lifetime.end.p0(i64 8, ptr %12) #11
  %149 = load i32, ptr %6, align 4
  ret i32 %149
}