; Function Attrs: mustprogress nofree noinline norecurse nosync nounwind willreturn memory(readwrite, inaccessiblemem: none) uwtable
define internal fastcc range(i32 -9, 4) i32 @WriteRingBuffer(ptr noundef captures(none) %0, ptr noundef captures(none) %1, ptr noundef %2, ptr noundef writeonly %3, i32 noundef range(i32 0, 2) %4) unnamed_addr #7 {
  %6 = getelementptr inbounds nuw i8, ptr %0, i64 136
  %7 = load ptr, ptr %6, align 8, !tbaa !43
  %8 = getelementptr inbounds nuw i8, ptr %0, i64 432
  %9 = load i64, ptr %8, align 8, !tbaa !37
  %10 = getelementptr inbounds nuw i8, ptr %0, i64 104
  %11 = load i32, ptr %10, align 8, !tbaa !111
  %12 = sext i32 %11 to i64
  %13 = and i64 %9, %12
  %14 = getelementptr inbounds nuw i8, ptr %7, i64 %13
  %.phi.trans.insert.i = getelementptr inbounds nuw i8, ptr %0, i64 88
  %.pre.i = load i32, ptr %.phi.trans.insert.i, align 8, !tbaa !105
  %.phi.trans.insert9.phi.trans.insert.i = getelementptr inbounds nuw i8, ptr %0, i64 100
  %.pre10.pre.i = load i32, ptr %.phi.trans.insert9.phi.trans.insert.i, align 4, !tbaa !103
  %spec.select.i = tail call i32 @llvm.smin.i32(i32 %.pre.i, i32 %.pre10.pre.i)
  %15 = sext i32 %spec.select.i to i64
  %16 = getelementptr inbounds nuw i8, ptr %0, i64 424
  %17 = load i64, ptr %16, align 8, !tbaa !112
  %18 = sext i32 %.pre10.pre.i to i64
  %19 = mul i64 %17, %18
  %20 = sub i64 %15, %9
  %21 = add i64 %20, %19
  %22 = load i64, ptr %1, align 8, !tbaa !25
  %spec.select = tail call i64 @llvm.umin.i64(i64 %22, i64 %21)
  %23 = getelementptr inbounds nuw i8, ptr %0, i64 132
  %24 = load i32, ptr %23, align 4, !tbaa !54
  %25 = icmp slt i32 %24, 0
  br i1 %25, label %59, label %26

26:                                               ; preds = %5
  %.not = icmp eq ptr %2, null
  br i1 %.not, label %.critedge, label %27

27:                                               ; preds = %26
  %28 = load ptr, ptr %2, align 8, !tbaa !24
  %.not48 = icmp eq ptr %28, null
  br i1 %.not48, label %29, label %30

29:                                               ; preds = %27
  store ptr %14, ptr %2, align 8, !tbaa !24
  br label %.critedge

30:                                               ; preds = %27
  tail call void @llvm.memcpy.p0.p0.i64(ptr nonnull align 1 %28, ptr align 1 %14, i64 %spec.select, i1 false)
  %31 = load ptr, ptr %2, align 8, !tbaa !24
  %32 = getelementptr inbounds nuw i8, ptr %31, i64 %spec.select
  store ptr %32, ptr %2, align 8, !tbaa !24
  %.pre = load i64, ptr %1, align 8, !tbaa !25
  br label %.critedge

.critedge:                                        ; preds = %26, %30, %29
  %33 = phi i64 [ %22, %26 ], [ %.pre, %30 ], [ %22, %29 ]
  %34 = sub i64 %33, %spec.select
  store i64 %34, ptr %1, align 8, !tbaa !25
  %35 = load i64, ptr %8, align 8, !tbaa !37
  %36 = add i64 %35, %spec.select
  store i64 %36, ptr %8, align 8, !tbaa !37
  %.not49 = icmp eq ptr %3, null
  br i1 %.not49, label %38, label %37

37:                                               ; preds = %.critedge
  store i64 %36, ptr %3, align 8, !tbaa !25
  br label %38

38:                                               ; preds = %37, %.critedge
  %39 = icmp ult i64 %22, %21
  %40 = load i32, ptr %.phi.trans.insert9.phi.trans.insert.i, align 4, !tbaa !103
  %41 = getelementptr inbounds nuw i8, ptr %0, i64 772
  %42 = load i32, ptr %41, align 4
  %43 = lshr i32 %42, 6
  %44 = and i32 %43, 63
  %45 = shl nuw i32 1, %44
  %46 = icmp eq i32 %40, %45
  br i1 %39, label %47, label %49

47:                                               ; preds = %38
  %48 = icmp ne i32 %4, 0
  %or.cond = or i1 %48, %46
  %. = select i1 %or.cond, i32 3, i32 1
  br label %59

49:                                               ; preds = %38
  br i1 %46, label %50, label %59

50:                                               ; preds = %49
  %51 = load i32, ptr %.phi.trans.insert.i, align 8, !tbaa !105
  %.not50 = icmp slt i32 %51, %40
  br i1 %.not50, label %59, label %52

52:                                               ; preds = %50
  %53 = sub nsw i32 %51, %40
  store i32 %53, ptr %.phi.trans.insert.i, align 8, !tbaa !105
  %54 = load i64, ptr %16, align 8, !tbaa !112
  %55 = add i64 %54, 1
  store i64 %55, ptr %16, align 8, !tbaa !112
  %.not51.not = icmp eq i32 %51, %40
  %56 = select i1 %.not51.not, i32 0, i32 8
  %57 = and i32 %42, -9
  %58 = or disjoint i32 %56, %57
  store i32 %58, ptr %41, align 4
  br label %59

59:                                               ; preds = %49, %50, %52, %47, %5
  %.041 = phi i32 [ -9, %5 ], [ %., %47 ], [ 1, %52 ], [ 1, %50 ], [ 1, %49 ]
  ret i32 %.041
}